target datalayout = "e-m:e-p270:32:32-p271:32:32-p272:64:64-i64:64-i128:128-f80:128-n8:16:32:64-S128"
target triple = "x86_64-pc-linux-gnu"

%struct._dcerpc_sub_dissector = type { i16, ptr, ptr, ptr }
%struct._value_string = type { i32, ptr }

; Function Attrs: null_pointer_is_valid sspstrong uwtable
define hidden ptr @value_string_from_subdissectors(ptr noundef %0) #0 {
  %2 = alloca ptr, align 8
  %3 = alloca ptr, align 8
  %4 = alloca i32, align 4
  %5 = alloca i32, align 4
  store ptr %0, ptr %2, align 8
  call void @llvm.lifetime.start.p0(i64 8, ptr %3) #19
  store ptr null, ptr %3, align 8
  call void @llvm.lifetime.start.p0(i64 4, ptr %4) #19
  call void @llvm.lifetime.start.p0(i64 4, ptr %5) #19
  store i32 0, ptr %5, align 4
  br label %6

6:                                                ; preds = %52, %1
  store i32 0, ptr %4, align 4
  br label %7

7:                                                ; preds = %46, %6
  %8 = load ptr, ptr %2, align 8
  %9 = load i32, ptr %4, align 4
  %10 = sext i32 %9 to i64
  %11 = getelementptr %struct._dcerpc_sub_dissector, ptr %8, i64 %10
  %12 = getelementptr inbounds nuw %struct._dcerpc_sub_dissector, ptr %11, i32 0, i32 1
  %13 = load ptr, ptr %12, align 8
  %14 = icmp ne ptr %13, null
  br i1 %14, label %15, label %49

15:                                               ; preds = %7
  %16 = load ptr, ptr %3, align 8
  %17 = icmp ne ptr %16, null
  br i1 %17, label %18, label %42

18:                                               ; preds = %15
  %19 = load ptr, ptr %2, align 8
  %20 = load i32, ptr %4, align 4
  %21 = sext i32 %20 to i64
  %22 = getelementptr %struct._dcerpc_sub_dissector, ptr %19, i64 %21
  %23 = getelementptr inbounds nuw %struct._dcerpc_sub_dissector, ptr %22, i32 0, i32 0
  %24 = load i16, ptr %23, align 8
  %25 = zext i16 %24 to i32
  %26 = load ptr, ptr %3, align 8
  %27 = load i32, ptr %4, align 4
  %28 = sext i32 %27 to i64
  %29 = getelementptr %struct._value_string, ptr %26, i64 %28
  %30 = getelementptr inbounds nuw %struct._value_string, ptr %29, i32 0, i32 0
  store i32 %25, ptr %30, align 8
  %31 = load ptr, ptr %2, align 8
  %32 = load i32, ptr %4, align 4
  %33 = sext i32 %32 to i64
  %34 = getelementptr %struct._dcerpc_sub_dissector, ptr %31, i64 %33
  %35 = getelementptr inbounds nuw %struct._dcerpc_sub_dissector, ptr %34, i32 0, i32 1
  %36 = load ptr, ptr %35, align 8
  %37 = load ptr, ptr %3, align 8
  %38 = load i32, ptr %4, align 4
  %39 = sext i32 %38 to i64
  %40 = getelementptr %struct._value_string, ptr %37, i64 %39
  %41 = getelementptr inbounds nuw %struct._value_string, ptr %40, i32 0, i32 1
  store ptr %36, ptr %41, align 8
  br label %45

42:                                               ; preds = %15
  %43 = load i32, ptr %5, align 4
  %44 = add i32 %43, 1
  store i32 %44, ptr %5, align 4
  br label %45

45:                                               ; preds = %42, %18
  br label %46

46:                                               ; preds = %45
  %47 = load i32, ptr %4, align 4
  %48 = add i32 %47, 1
  store i32 %48, ptr %4, align 4
  br label %7, !llvm.loop !9

49:                                               ; preds = %7
  %50 = load ptr, ptr %3, align 8
  %51 = icmp ne ptr %50, null
  br i1 %51, label %59, label %52

52:                                               ; preds = %49
  %53 = call ptr @wmem_epan_scope()
  %54 = load i32, ptr %5, align 4
  %55 = add i32 %54, 1
  %56 = sext i32 %55 to i64
  %57 = mul i64 %56, 16
  %58 = call noalias ptr @wmem_alloc(ptr noundef %53, i64 noundef %57) #22
  store ptr %58, ptr %3, align 8
  br label %6

59:                                               ; preds = %49
  %60 = load ptr, ptr %3, align 8
  %61 = load i32, ptr %5, align 4
  %62 = sext i32 %61 to i64
  %63 = getelementptr %struct._value_string, ptr %60, i64 %62
  %64 = getelementptr inbounds nuw %struct._value_string, ptr %63, i32 0, i32 0
  store i32 0, ptr %64, align 8
  %65 = load ptr, ptr %3, align 8
  %66 = load i32, ptr %5, align 4
  %67 = sext i32 %66 to i64
  %68 = getelementptr %struct._value_string, ptr %65, i64 %67
  %69 = getelementptr inbounds nuw %struct._value_string, ptr %68, i32 0, i32 1
  store ptr null, ptr %69, align 8
  %70 = load ptr, ptr %3, align 8
  call void @llvm.lifetime.end.p0(i64 4, ptr %5) #19
  call void @llvm.lifetime.end.p0(i64 4, ptr %4) #19
  call void @llvm.lifetime.end.p0(i64 8, ptr %3) #19
  ret ptr %70
}