; Function Attrs: null_pointer_is_valid sspstrong uwtable
define hidden nonnull ptr @value_string_from_subdissectors(ptr noundef readonly captures(none) %0) local_unnamed_addr #0 {
  %2 = getelementptr i8, ptr %0, i64 8
  br label %3

3:                                                ; preds = %22, %1
  %.020 = phi ptr [ null, %1 ], [ %27, %22 ]
  %.0 = phi i32 [ 0, %1 ], [ %.1.lcssa, %22 ]
  %4 = load ptr, ptr %2, align 8
  %.not23 = icmp eq ptr %4, null
  br i1 %.not23, label %._crit_edge, label %.lr.ph

.lr.ph:                                           ; preds = %3
  %.not22 = icmp eq ptr %.020, null
  br i1 %.not22, label %.lr.ph.split.us, label %.lr.ph.split

.lr.ph.split.us:                                  ; preds = %.lr.ph, %.lr.ph.split.us
  %.125.us = phi i32 [ %5, %.lr.ph.split.us ], [ %.0, %.lr.ph ]
  %.01924.us = phi i32 [ %6, %.lr.ph.split.us ], [ 0, %.lr.ph ]
  %5 = add i32 %.125.us, 1
  %6 = add i32 %.01924.us, 1
  %7 = sext i32 %6 to i64
  %gep = getelementptr %struct._dcerpc_sub_dissector, ptr %2, i64 %7
  %8 = load ptr, ptr %gep, align 8
  %.not.us = icmp eq ptr %8, null
  br i1 %.not.us, label %._crit_edge, label %.lr.ph.split.us, !llvm.loop !9

.lr.ph.split:                                     ; preds = %.lr.ph, %.lr.ph.split
  %9 = phi ptr [ %20, %.lr.ph.split ], [ %2, %.lr.ph ]
  %10 = phi ptr [ %19, %.lr.ph.split ], [ %0, %.lr.ph ]
  %11 = phi i64 [ %18, %.lr.ph.split ], [ 0, %.lr.ph ]
  %.01924 = phi i32 [ %17, %.lr.ph.split ], [ 0, %.lr.ph ]
  %12 = load i16, ptr %10, align 8
  %13 = zext i16 %12 to i32
  %14 = getelementptr %struct._value_string, ptr %.020, i64 %11
  store i32 %13, ptr %14, align 8
  %15 = load ptr, ptr %9, align 8
  %16 = getelementptr inbounds nuw i8, ptr %14, i64 8
  store ptr %15, ptr %16, align 8
  %17 = add i32 %.01924, 1
  %18 = sext i32 %17 to i64
  %19 = getelementptr %struct._dcerpc_sub_dissector, ptr %0, i64 %18
  %20 = getelementptr inbounds nuw i8, ptr %19, i64 8
  %21 = load ptr, ptr %20, align 8
  %.not = icmp eq ptr %21, null
  br i1 %.not, label %._crit_edge, label %.lr.ph.split, !llvm.loop !9

._crit_edge:                                      ; preds = %.lr.ph.split, %.lr.ph.split.us, %3
  %.1.lcssa = phi i32 [ %.0, %3 ], [ %5, %.lr.ph.split.us ], [ %.0, %.lr.ph.split ]
  %.not21 = icmp eq ptr %.020, null
  br i1 %.not21, label %22, label %28

22:                                               ; preds = %._crit_edge
  %23 = tail call ptr @wmem_epan_scope()
  %24 = add i32 %.1.lcssa, 1
  %25 = sext i32 %24 to i64
  %26 = shl nsw i64 %25, 4
  %27 = tail call noalias ptr @wmem_alloc(ptr noundef %23, i64 noundef %26) #18
  br label %3

28:                                               ; preds = %._crit_edge
  %29 = sext i32 %.1.lcssa to i64
  %30 = getelementptr %struct._value_string, ptr %.020, i64 %29
  store i32 0, ptr %30, align 8
  %31 = getelementptr inbounds nuw i8, ptr %30, i64 8
  store ptr null, ptr %31, align 8
  ret ptr %.020
}